; Function Attrs: nounwind uwtable
define hidden i32 @Curl_pp_sendf(ptr noundef %0, ptr noundef %1, ptr noundef %2, ...) local_unnamed_addr #0 {
  %4 = alloca [1 x %struct.__va_list_tag], align 16
  call void @llvm.lifetime.start.p0(i64 24, ptr nonnull %4) #10
  call void @llvm.va_start.p0(ptr nonnull %4)
  %5 = call i32 @Curl_pp_vsendf(ptr noundef %0, ptr noundef %1, ptr noundef %2, ptr noundef nonnull %4)
  call void @llvm.va_end.p0(ptr nonnull %4)
  call void @llvm.lifetime.end.p0(i64 24, ptr nonnull %4) #10
  ret i32 %5
}